target datalayout = "e-m:e-p270:32:32-p271:32:32-p272:64:64-i64:64-i128:128-f80:128-n8:16:32:64-S128"
target triple = "x86_64-pc-linux-gnu"

; Function Attrs: mustprogress uwtable
define i32 @ucnv_extSimpleMatchFromU_77(ptr noundef %0, i32 noundef %1, ptr noundef %2, i8 noundef signext %3) #0 {
  %5 = alloca i32, align 4
  %6 = alloca ptr, align 8
  %7 = alloca i32, align 4
  %8 = alloca ptr, align 8
  %9 = alloca i8, align 1
  %10 = alloca i32, align 4
  %11 = alloca i32, align 4
  %12 = alloca i32, align 4
  %13 = alloca i32, align 4
  %14 = alloca i32, align 4
  store ptr %0, ptr %6, align 8, !tbaa !8
  store i32 %1, ptr %7, align 4, !tbaa !10
  store ptr %2, ptr %8, align 8, !tbaa !8
  store i8 %3, ptr %9, align 1, !tbaa !23
  call void @llvm.lifetime.start.p0(i64 4, ptr %10) #7
  call void @llvm.lifetime.start.p0(i64 4, ptr %11) #7
  %15 = load ptr, ptr %6, align 8, !tbaa !8
  %16 = load i32, ptr %7, align 4, !tbaa !10
  %17 = load i8, ptr %9, align 1, !tbaa !23
  %18 = call noundef i32 @_ZL18ucnv_extMatchFromUPKiiPKDsiS2_iPjaa(ptr noundef %15, i32 noundef %16, ptr noundef null, i32 noundef 0, ptr noundef null, i32 noundef 0, ptr noundef %10, i8 noundef signext %17, i8 noundef signext 1)
  store i32 %18, ptr %11, align 4, !tbaa !10
  %19 = load i32, ptr %11, align 4, !tbaa !10
  %20 = icmp sge i32 %19, 2
  br i1 %20, label %21, label %49

21:                                               ; preds = %4
  call void @llvm.lifetime.start.p0(i64 4, ptr %12) #7
  call void @llvm.lifetime.start.p0(i64 4, ptr %13) #7
  %22 = load i32, ptr %10, align 4, !tbaa !10
  %23 = and i32 %22, -2147483648
  %24 = icmp ne i32 %23, 0
  %25 = zext i1 %24 to i32
  store i32 %25, ptr %13, align 4, !tbaa !10
  %26 = load i32, ptr %10, align 4, !tbaa !10
  %27 = lshr i32 %26, 24
  %28 = and i32 %27, 31
  store i32 %28, ptr %12, align 4, !tbaa !10
  %29 = load i32, ptr %10, align 4, !tbaa !10
  %30 = and i32 %29, 16777215
  store i32 %30, ptr %10, align 4, !tbaa !10
  %31 = load i32, ptr %12, align 4, !tbaa !10
  %32 = icmp sle i32 %31, 3
  br i1 %32, label %33, label %45

33:                                               ; preds = %21
  %34 = load i32, ptr %10, align 4, !tbaa !10
  %35 = load ptr, ptr %8, align 8, !tbaa !8
  store i32 %34, ptr %35, align 4, !tbaa !10
  %36 = load i32, ptr %13, align 4, !tbaa !10
  %37 = icmp ne i32 %36, 0
  br i1 %37, label %38, label %40

38:                                               ; preds = %33
  %39 = load i32, ptr %12, align 4, !tbaa !10
  br label %43

40:                                               ; preds = %33
  %41 = load i32, ptr %12, align 4, !tbaa !10
  %42 = sub nsw i32 0, %41
  br label %43

43:                                               ; preds = %40, %38
  %44 = phi i32 [ %39, %38 ], [ %42, %40 ]
  store i32 %44, ptr %5, align 4
  store i32 1, ptr %14, align 4
  br label %46

45:                                               ; preds = %21
  store i32 0, ptr %14, align 4
  br label %46

46:                                               ; preds = %45, %43
  call void @llvm.lifetime.end.p0(i64 4, ptr %13) #7
  call void @llvm.lifetime.end.p0(i64 4, ptr %12) #7
  %47 = load i32, ptr %14, align 4
  switch i32 %47, label %50 [
    i32 0, label %48
  ]

48:                                               ; preds = %46
  br label %49

49:                                               ; preds = %48, %4
  store i32 0, ptr %5, align 4
  store i32 1, ptr %14, align 4
  br label %50

50:                                               ; preds = %49, %46
  call void @llvm.lifetime.end.p0(i64 4, ptr %11) #7
  call void @llvm.lifetime.end.p0(i64 4, ptr %10) #7
  %51 = load i32, ptr %5, align 4
  ret i32 %51
}