; Function Attrs: mustprogress nofree norecurse nosync nounwind memory(readwrite, inaccessiblemem: none) uwtable
define range(i32 -3, 4) i32 @ucnv_extSimpleMatchFromU_77(ptr noundef %0, i32 noundef %1, ptr noundef writeonly captures(none) %2, i8 noundef signext %3) local_unnamed_addr #3 {
  %5 = alloca i32, align 4
  call void @llvm.lifetime.start.p0(i64 4, ptr nonnull %5) #7
  %6 = call fastcc noundef i32 @_ZL18ucnv_extMatchFromUPKiiPKDsiS2_iPjaa(ptr noundef %0, i32 noundef %1, ptr noundef null, i32 noundef 0, ptr noundef null, i32 noundef 0, ptr noundef %5, i8 noundef signext %3, i8 noundef signext 1)
  %7 = icmp sgt i32 %6, 1
  br i1 %7, label %8, label %.thread

8:                                                ; preds = %4
  %9 = load i32, ptr %5, align 4, !tbaa !3
  %10 = lshr i32 %9, 24
  %11 = and i32 %10, 31
  %12 = icmp samesign ugt i32 %11, 3
  br i1 %12, label %.thread, label %13

13:                                               ; preds = %8
  %14 = and i32 %9, 16777215
  store i32 %14, ptr %2, align 4, !tbaa !3
  %15 = sub nsw i32 0, %11
  %.not12 = icmp slt i32 %9, 0
  %16 = select i1 %.not12, i32 %11, i32 %15
  br label %.thread

.thread:                                          ; preds = %8, %4, %13
  %.1 = phi i32 [ %16, %13 ], [ 0, %4 ], [ 0, %8 ]
  call void @llvm.lifetime.end.p0(i64 4, ptr nonnull %5) #7
  ret i32 %.1
}